target datalayout = "e-m:e-p270:32:32-p271:32:32-p272:64:64-i64:64-i128:128-f80:128-n8:16:32:64-S128"
target triple = "x86_64-pc-linux-gnu"

%struct.SDL_WindowData = type { ptr, ptr, ptr, ptr, ptr, ptr, ptr, %union.anon, i32, i32, i32, i32, ptr, ptr, ptr, ptr, ptr, ptr, ptr, ptr, ptr, ptr, ptr, ptr, ptr, ptr, %struct.SDL_AtomicInt, ptr, i32, ptr, double, ptr, i32, i32, i32, i32, %struct.anon.3, %struct.anon.4, %struct.anon.5, %struct.anon.6, %struct.anon.7, %struct.anon.8, %struct.anon.9, i32, i32, i32, i64, i32, i32, i8, i8, i8, i8, i8, i8, i8, i8, i8, i8, i8, i8, i8, i8, i32, %struct.wl_list }
%union.anon = type { %struct.anon }
%struct.anon = type { ptr, %union.anon.0, i8 }
%union.anon.0 = type { %struct.anon.2 }
%struct.anon.2 = type { ptr, ptr }
%struct.SDL_AtomicInt = type { i32 }
%struct.anon.3 = type { double, double }
%struct.anon.4 = type { i32, i32, i32, i32 }
%struct.anon.5 = type { i32, i32, i32, i32 }
%struct.anon.6 = type { i32, i32 }
%struct.anon.7 = type { i32, i32 }
%struct.anon.8 = type { i32, i32 }
%struct.anon.9 = type { i32, i32, i8 }
%struct.wl_list = type { ptr, ptr }
%struct.SDL_Window = type { i32, ptr, ptr, i32, i32, i32, i32, i32, i32, i32, i32, float, float, i32, i32, i64, i64, float, i8, i8, i32, i32, %struct.SDL_Rect, %struct.SDL_Rect, %struct.SDL_Rect, i8, i8, i8, %struct.SDL_DisplayMode, %struct.SDL_DisplayMode, %struct.SDL_HDROutputProperties, float, ptr, i8, i8, i8, i8, i8, i8, i8, i8, i8, i32, i32, i32, i32, %struct.SDL_Rect, i32, i8, %struct.SDL_Rect, i32, %struct.SDL_Rect, ptr, ptr, i32, float, i32, i32, ptr, ptr, ptr, ptr, ptr, ptr, ptr, ptr, ptr }
%struct.SDL_DisplayMode = type { i32, i32, i32, i32, float, float, i32, i32, ptr }
%struct.SDL_HDROutputProperties = type { float, float }
%struct.SDL_Rect = type { i32, i32, i32, i32 }

; Function Attrs: nounwind uwtable
define hidden float @Wayland_GetWindowContentScale(ptr noundef %0, ptr noundef %1) #0 {
  %3 = alloca float, align 4
  %4 = alloca ptr, align 8
  %5 = alloca ptr, align 8
  %6 = alloca ptr, align 8
  %7 = alloca i32, align 4
  store ptr %0, ptr %4, align 8
  store ptr %1, ptr %5, align 8
  call void @llvm.lifetime.start.p0(i64 8, ptr %6) #10
  %8 = load ptr, ptr %5, align 8
  %9 = getelementptr inbounds nuw %struct.SDL_Window, ptr %8, i32 0, i32 59
  %10 = load ptr, ptr %9, align 8
  store ptr %10, ptr %6, align 8
  %11 = load ptr, ptr %5, align 8
  %12 = getelementptr inbounds nuw %struct.SDL_Window, ptr %11, i32 0, i32 15
  %13 = load i64, ptr %12, align 8
  %14 = and i64 %13, 8192
  %15 = icmp ne i64 %14, 0
  br i1 %15, label %26, label %16

16:                                               ; preds = %2
  %17 = load ptr, ptr %6, align 8
  %18 = getelementptr inbounds nuw %struct.SDL_WindowData, ptr %17, i32 0, i32 60
  %19 = load i8, ptr %18, align 1, !range !5, !noundef !6
  %20 = trunc i8 %19 to i1
  br i1 %20, label %26, label %21

21:                                               ; preds = %16
  %22 = load ptr, ptr %6, align 8
  %23 = getelementptr inbounds nuw %struct.SDL_WindowData, ptr %22, i32 0, i32 55
  %24 = load i8, ptr %23, align 2, !range !5, !noundef !6
  %25 = trunc i8 %24 to i1
  br i1 %25, label %26, label %31

26:                                               ; preds = %21, %16, %2
  %27 = load ptr, ptr %6, align 8
  %28 = getelementptr inbounds nuw %struct.SDL_WindowData, ptr %27, i32 0, i32 30
  %29 = load double, ptr %28, align 8
  %30 = fptrunc double %29 to float
  store float %30, ptr %3, align 4
  store i32 1, ptr %7, align 4
  br label %32

31:                                               ; preds = %21
  store float 1.000000e+00, ptr %3, align 4
  store i32 1, ptr %7, align 4
  br label %32

32:                                               ; preds = %31, %26
  call void @llvm.lifetime.end.p0(i64 8, ptr %6) #10
  %33 = load float, ptr %3, align 4
  ret float %33
}