; Function Attrs: mustprogress nofree norecurse nosync nounwind willreturn memory(read, inaccessiblemem: none) uwtable
define hidden float @Wayland_GetWindowContentScale(ptr noundef readnone captures(none) %0, ptr noundef readonly captures(none) %1) local_unnamed_addr #7 {
  %3 = getelementptr inbounds nuw i8, ptr %1, i64 392
  %4 = load ptr, ptr %3, align 8
  %5 = getelementptr inbounds nuw i8, ptr %1, i64 72
  %6 = load i64, ptr %5, align 8
  %7 = and i64 %6, 8192
  %.not = icmp eq i64 %7, 0
  br i1 %.not, label %8, label %16

8:                                                ; preds = %2
  %9 = getelementptr inbounds nuw i8, ptr %4, i64 403
  %10 = load i8, ptr %9, align 1, !range !5, !noundef !6
  %11 = trunc nuw i8 %10 to i1
  br i1 %11, label %16, label %12

12:                                               ; preds = %8
  %13 = getelementptr inbounds nuw i8, ptr %4, i64 398
  %14 = load i8, ptr %13, align 2, !range !5, !noundef !6
  %15 = trunc nuw i8 %14 to i1
  br i1 %15, label %16, label %20

16:                                               ; preds = %12, %8, %2
  %17 = getelementptr inbounds nuw i8, ptr %4, i64 248
  %18 = load double, ptr %17, align 8
  %19 = fptrunc double %18 to float
  br label %20

20:                                               ; preds = %12, %16
  %.0 = phi float [ %19, %16 ], [ 1.000000e+00, %12 ]
  ret float %.0
}